target datalayout = "e-m:e-p270:32:32-p271:32:32-p272:64:64-i64:64-i128:128-f80:128-n8:16:32:64-S128"
target triple = "x86_64-pc-linux-gnu"

%"struct.Luau::CodeGen::A64::IrRegAllocA64" = type <{ ptr, ptr, %"struct.Luau::CodeGen::A64::IrRegAllocA64::Set", %"struct.Luau::CodeGen::A64::IrRegAllocA64::Set", %"class.std::vector", i32, i8, [3 x i8] }>
%"struct.Luau::CodeGen::A64::IrRegAllocA64::Set" = type { i32, i32, i32, [32 x i32] }
%"class.std::vector" = type { %"struct.std::_Vector_base" }
%"struct.std::_Vector_base" = type { %"struct.std::_Vector_base<Luau::CodeGen::A64::IrRegAllocA64::Spill, std::allocator<Luau::CodeGen::A64::IrRegAllocA64::Spill>>::_Vector_impl" }
%"struct.std::_Vector_base<Luau::CodeGen::A64::IrRegAllocA64::Spill, std::allocator<Luau::CodeGen::A64::IrRegAllocA64::Spill>>::_Vector_impl" = type { %"struct.std::_Vector_base<Luau::CodeGen::A64::IrRegAllocA64::Spill, std::allocator<Luau::CodeGen::A64::IrRegAllocA64::Spill>>::_Vector_impl_data" }
%"struct.std::_Vector_base<Luau::CodeGen::A64::IrRegAllocA64::Spill, std::allocator<Luau::CodeGen::A64::IrRegAllocA64::Spill>>::_Vector_impl_data" = type { ptr, ptr, ptr }

; Function Attrs: mustprogress nounwind uwtable
define dso_local void @_ZN4Luau7CodeGen3A6413IrRegAllocA6412freeTempRegsEv(ptr noundef nonnull align 8 dereferenceable(325) %0) #1 align 2 {
  %2 = alloca ptr, align 8
  store ptr %0, ptr %2, align 8, !tbaa !20
  %3 = load ptr, ptr %2, align 8
  %4 = getelementptr inbounds nuw %"struct.Luau::CodeGen::A64::IrRegAllocA64", ptr %3, i32 0, i32 2
  %5 = getelementptr inbounds nuw %"struct.Luau::CodeGen::A64::IrRegAllocA64::Set", ptr %4, i32 0, i32 2
  %6 = load i32, ptr %5, align 8, !tbaa !95
  %7 = getelementptr inbounds nuw %"struct.Luau::CodeGen::A64::IrRegAllocA64", ptr %3, i32 0, i32 2
  %8 = getelementptr inbounds nuw %"struct.Luau::CodeGen::A64::IrRegAllocA64::Set", ptr %7, i32 0, i32 1
  %9 = load i32, ptr %8, align 4, !tbaa !48
  %10 = or i32 %9, %6
  store i32 %10, ptr %8, align 4, !tbaa !48
  %11 = getelementptr inbounds nuw %"struct.Luau::CodeGen::A64::IrRegAllocA64", ptr %3, i32 0, i32 2
  %12 = getelementptr inbounds nuw %"struct.Luau::CodeGen::A64::IrRegAllocA64::Set", ptr %11, i32 0, i32 2
  store i32 0, ptr %12, align 8, !tbaa !95
  %13 = getelementptr inbounds nuw %"struct.Luau::CodeGen::A64::IrRegAllocA64", ptr %3, i32 0, i32 3
  %14 = getelementptr inbounds nuw %"struct.Luau::CodeGen::A64::IrRegAllocA64::Set", ptr %13, i32 0, i32 2
  %15 = load i32, ptr %14, align 4, !tbaa !96
  %16 = getelementptr inbounds nuw %"struct.Luau::CodeGen::A64::IrRegAllocA64", ptr %3, i32 0, i32 3
  %17 = getelementptr inbounds nuw %"struct.Luau::CodeGen::A64::IrRegAllocA64::Set", ptr %16, i32 0, i32 1
  %18 = load i32, ptr %17, align 4, !tbaa !50
  %19 = or i32 %18, %15
  store i32 %19, ptr %17, align 4, !tbaa !50
  %20 = getelementptr inbounds nuw %"struct.Luau::CodeGen::A64::IrRegAllocA64", ptr %3, i32 0, i32 3
  %21 = getelementptr inbounds nuw %"struct.Luau::CodeGen::A64::IrRegAllocA64::Set", ptr %20, i32 0, i32 2
  store i32 0, ptr %21, align 4, !tbaa !96
  ret void
}