; Function Attrs: mustprogress nofree norecurse nosync nounwind willreturn memory(argmem: readwrite) uwtable
define dso_local void @_ZN4Luau7CodeGen3A6413IrRegAllocA6412freeTempRegsEv(ptr noundef nonnull align 8 captures(none) dereferenceable(325) %0) local_unnamed_addr #5 align 2 {
  %2 = getelementptr inbounds nuw i8, ptr %0, i64 24
  %3 = load i32, ptr %2, align 8, !tbaa !54
  %4 = getelementptr inbounds nuw i8, ptr %0, i64 20
  %5 = load i32, ptr %4, align 4, !tbaa !25
  %6 = or i32 %5, %3
  store i32 %6, ptr %4, align 4, !tbaa !25
  store i32 0, ptr %2, align 8, !tbaa !54
  %7 = getelementptr inbounds nuw i8, ptr %0, i64 164
  %8 = load i32, ptr %7, align 4, !tbaa !55
  %9 = getelementptr inbounds nuw i8, ptr %0, i64 160
  %10 = load i32, ptr %9, align 8, !tbaa !26
  %11 = or i32 %10, %8
  store i32 %11, ptr %9, align 8, !tbaa !26
  store i32 0, ptr %7, align 4, !tbaa !55
  ret void
}